target datalayout = "e-m:e-p270:32:32-p271:32:32-p272:64:64-i64:64-i128:128-f80:128-n8:16:32:64-S128"
target triple = "x86_64-pc-linux-gnu"

%struct.ForEachState = type { ptr, i32 }
%struct.List = type { i32, i32, i32, ptr, [0 x %union.ListCell] }
%union.ListCell = type { ptr }
%struct.IndexClause = type { i32, ptr, ptr, i8, i16, ptr }

; Function Attrs: nounwind uwtable
define dso_local ptr @get_quals_from_indexclauses(ptr noundef %0) #0 {
  %2 = alloca ptr, align 8
  %3 = alloca ptr, align 8
  %4 = alloca ptr, align 8
  %5 = alloca %struct.ForEachState, align 8
  %6 = alloca i32, align 4
  %7 = alloca ptr, align 8
  %8 = alloca ptr, align 8
  %9 = alloca %struct.ForEachState, align 8
  %10 = alloca ptr, align 8
  store ptr %0, ptr %2, align 8
  call void @llvm.lifetime.start.p0(i64 8, ptr %3) #10
  store ptr null, ptr %3, align 8
  call void @llvm.lifetime.start.p0(i64 8, ptr %4) #10
  call void @llvm.lifetime.start.p0(i64 16, ptr %5) #10
  %11 = getelementptr inbounds nuw %struct.ForEachState, ptr %5, i32 0, i32 0
  %12 = load ptr, ptr %2, align 8
  store ptr %12, ptr %11, align 8
  %13 = getelementptr inbounds nuw %struct.ForEachState, ptr %5, i32 0, i32 1
  store i32 0, ptr %13, align 8
  %14 = getelementptr i8, ptr %5, i64 12
  call void @llvm.memset.p0.i64(ptr align 4 %14, i8 0, i64 4, i1 false)
  br label %15

15:                                               ; preds = %87, %1
  %16 = getelementptr inbounds nuw %struct.ForEachState, ptr %5, i32 0, i32 0
  %17 = load ptr, ptr %16, align 8
  %18 = icmp ne ptr %17, null
  br i1 %18, label %19, label %36

19:                                               ; preds = %15
  %20 = getelementptr inbounds nuw %struct.ForEachState, ptr %5, i32 0, i32 1
  %21 = load i32, ptr %20, align 8
  %22 = getelementptr inbounds nuw %struct.ForEachState, ptr %5, i32 0, i32 0
  %23 = load ptr, ptr %22, align 8
  %24 = getelementptr inbounds nuw %struct.List, ptr %23, i32 0, i32 1
  %25 = load i32, ptr %24, align 4
  %26 = icmp slt i32 %21, %25
  br i1 %26, label %27, label %36

27:                                               ; preds = %19
  %28 = getelementptr inbounds nuw %struct.ForEachState, ptr %5, i32 0, i32 0
  %29 = load ptr, ptr %28, align 8
  %30 = getelementptr inbounds nuw %struct.List, ptr %29, i32 0, i32 3
  %31 = load ptr, ptr %30, align 8
  %32 = getelementptr inbounds nuw %struct.ForEachState, ptr %5, i32 0, i32 1
  %33 = load i32, ptr %32, align 8
  %34 = sext i32 %33 to i64
  %35 = getelementptr inbounds %union.ListCell, ptr %31, i64 %34
  store ptr %35, ptr %4, align 8
  br label %37

36:                                               ; preds = %19, %15
  store ptr null, ptr %4, align 8
  br label %37

37:                                               ; preds = %36, %27
  %38 = phi i32 [ 1, %27 ], [ 0, %36 ]
  %39 = icmp ne i32 %38, 0
  br i1 %39, label %41, label %40

40:                                               ; preds = %37
  store i32 2, ptr %6, align 4
  call void @llvm.lifetime.end.p0(i64 16, ptr %5) #10
  br label %91

41:                                               ; preds = %37
  call void @llvm.lifetime.start.p0(i64 8, ptr %7) #10
  %42 = load ptr, ptr %4, align 8
  %43 = load ptr, ptr %42, align 8
  store ptr %43, ptr %7, align 8
  call void @llvm.lifetime.start.p0(i64 8, ptr %8) #10
  call void @llvm.lifetime.start.p0(i64 16, ptr %9) #10
  %44 = getelementptr inbounds nuw %struct.ForEachState, ptr %9, i32 0, i32 0
  %45 = load ptr, ptr %7, align 8
  %46 = getelementptr inbounds nuw %struct.IndexClause, ptr %45, i32 0, i32 2
  %47 = load ptr, ptr %46, align 8
  store ptr %47, ptr %44, align 8
  %48 = getelementptr inbounds nuw %struct.ForEachState, ptr %9, i32 0, i32 1
  store i32 0, ptr %48, align 8
  %49 = getelementptr i8, ptr %9, i64 12
  call void @llvm.memset.p0.i64(ptr align 4 %49, i8 0, i64 4, i1 false)
  br label %50

50:                                               ; preds = %82, %41
  %51 = getelementptr inbounds nuw %struct.ForEachState, ptr %9, i32 0, i32 0
  %52 = load ptr, ptr %51, align 8
  %53 = icmp ne ptr %52, null
  br i1 %53, label %54, label %71

54:                                               ; preds = %50
  %55 = getelementptr inbounds nuw %struct.ForEachState, ptr %9, i32 0, i32 1
  %56 = load i32, ptr %55, align 8
  %57 = getelementptr inbounds nuw %struct.ForEachState, ptr %9, i32 0, i32 0
  %58 = load ptr, ptr %57, align 8
  %59 = getelementptr inbounds nuw %struct.List, ptr %58, i32 0, i32 1
  %60 = load i32, ptr %59, align 4
  %61 = icmp slt i32 %56, %60
  br i1 %61, label %62, label %71

62:                                               ; preds = %54
  %63 = getelementptr inbounds nuw %struct.ForEachState, ptr %9, i32 0, i32 0
  %64 = load ptr, ptr %63, align 8
  %65 = getelementptr inbounds nuw %struct.List, ptr %64, i32 0, i32 3
  %66 = load ptr, ptr %65, align 8
  %67 = getelementptr inbounds nuw %struct.ForEachState, ptr %9, i32 0, i32 1
  %68 = load i32, ptr %67, align 8
  %69 = sext i32 %68 to i64
  %70 = getelementptr inbounds %union.ListCell, ptr %66, i64 %69
  store ptr %70, ptr %8, align 8
  br label %72

71:                                               ; preds = %54, %50
  store ptr null, ptr %8, align 8
  br label %72

72:                                               ; preds = %71, %62
  %73 = phi i32 [ 1, %62 ], [ 0, %71 ]
  %74 = icmp ne i32 %73, 0
  br i1 %74, label %76, label %75

75:                                               ; preds = %72
  store i32 5, ptr %6, align 4
  call void @llvm.lifetime.end.p0(i64 16, ptr %9) #10
  br label %86

76:                                               ; preds = %72
  call void @llvm.lifetime.start.p0(i64 8, ptr %10) #10
  %77 = load ptr, ptr %8, align 8
  %78 = load ptr, ptr %77, align 8
  store ptr %78, ptr %10, align 8
  %79 = load ptr, ptr %3, align 8
  %80 = load ptr, ptr %10, align 8
  %81 = call ptr @lappend(ptr noundef %79, ptr noundef %80)
  store ptr %81, ptr %3, align 8
  call void @llvm.lifetime.end.p0(i64 8, ptr %10) #10
  br label %82

82:                                               ; preds = %76
  %83 = getelementptr inbounds nuw %struct.ForEachState, ptr %9, i32 0, i32 1
  %84 = load i32, ptr %83, align 8
  %85 = add i32 %84, 1
  store i32 %85, ptr %83, align 8
  br label %50, !llvm.loop !51

86:                                               ; preds = %75
  call void @llvm.lifetime.end.p0(i64 8, ptr %8) #10
  call void @llvm.lifetime.end.p0(i64 8, ptr %7) #10
  br label %87

87:                                               ; preds = %86
  %88 = getelementptr inbounds nuw %struct.ForEachState, ptr %5, i32 0, i32 1
  %89 = load i32, ptr %88, align 8
  %90 = add i32 %89, 1
  store i32 %90, ptr %88, align 8
  br label %15, !llvm.loop !52

91:                                               ; preds = %40
  %92 = load ptr, ptr %3, align 8
  store i32 1, ptr %6, align 4
  call void @llvm.lifetime.end.p0(i64 8, ptr %4) #10
  call void @llvm.lifetime.end.p0(i64 8, ptr %3) #10
  ret ptr %92
}