; Function Attrs: nounwind uwtable
define dso_local ptr @get_quals_from_indexclauses(ptr noundef readonly captures(address_is_null) %0) local_unnamed_addr #0 {
  %2 = getelementptr inbounds nuw i8, ptr %0, i64 4
  %.not = icmp eq ptr %0, null
  br i1 %.not, label %._crit_edge44, label %.lr.ph43

.lr.ph43:                                         ; preds = %1
  %3 = getelementptr inbounds nuw i8, ptr %0, i64 16
  %4 = load i32, ptr %2, align 4
  %5 = icmp sgt i32 %4, 0
  br i1 %5, label %.lr.ph54, label %._crit_edge44

._crit_edge44:                                    ; preds = %._crit_edge, %.lr.ph43, %1
  %.0.lcssa = phi ptr [ null, %1 ], [ null, %.lr.ph43 ], [ %.1.lcssa, %._crit_edge ]
  ret ptr %.0.lcssa

.lr.ph54:                                         ; preds = %.lr.ph43, %._crit_edge
  %6 = phi i32 [ %16, %._crit_edge ], [ %4, %.lr.ph43 ]
  %indvars.iv57 = phi i64 [ %indvars.iv.next58, %._crit_edge ], [ 0, %.lr.ph43 ]
  %.04152 = phi ptr [ %.1.lcssa, %._crit_edge ], [ null, %.lr.ph43 ]
  %7 = load ptr, ptr %3, align 8
  %8 = getelementptr inbounds nuw %union.ListCell, ptr %7, i64 %indvars.iv57
  %9 = load ptr, ptr %8, align 8
  %10 = getelementptr inbounds nuw i8, ptr %9, i64 16
  %11 = load ptr, ptr %10, align 8
  %12 = getelementptr inbounds nuw i8, ptr %11, i64 4
  %.not23 = icmp eq ptr %11, null
  br i1 %.not23, label %._crit_edge, label %.lr.ph

.lr.ph:                                           ; preds = %.lr.ph54
  %13 = getelementptr inbounds nuw i8, ptr %11, i64 16
  %14 = load i32, ptr %12, align 4
  %15 = icmp sgt i32 %14, 0
  br i1 %15, label %.lr.ph38, label %._crit_edge

._crit_edge.loopexit:                             ; preds = %.lr.ph38
  %.pre = load i32, ptr %2, align 4
  br label %._crit_edge

._crit_edge:                                      ; preds = %._crit_edge.loopexit, %.lr.ph, %.lr.ph54
  %16 = phi i32 [ %6, %.lr.ph54 ], [ %6, %.lr.ph ], [ %.pre, %._crit_edge.loopexit ]
  %.1.lcssa = phi ptr [ %.04152, %.lr.ph54 ], [ %.04152, %.lr.ph ], [ %22, %._crit_edge.loopexit ]
  %indvars.iv.next58 = add nuw nsw i64 %indvars.iv57, 1
  %17 = sext i32 %16 to i64
  %18 = icmp slt i64 %indvars.iv.next58, %17
  br i1 %18, label %.lr.ph54, label %._crit_edge44

.lr.ph38:                                         ; preds = %.lr.ph, %.lr.ph38
  %indvars.iv = phi i64 [ %indvars.iv.next, %.lr.ph38 ], [ 0, %.lr.ph ]
  %.13236 = phi ptr [ %22, %.lr.ph38 ], [ %.04152, %.lr.ph ]
  %19 = load ptr, ptr %13, align 8
  %20 = getelementptr inbounds nuw %union.ListCell, ptr %19, i64 %indvars.iv
  %21 = load ptr, ptr %20, align 8
  %22 = tail call ptr @lappend(ptr noundef %.13236, ptr noundef %21) #12
  %indvars.iv.next = add nuw nsw i64 %indvars.iv, 1
  %23 = load i32, ptr %12, align 4
  %24 = sext i32 %23 to i64
  %25 = icmp slt i64 %indvars.iv.next, %24
  br i1 %25, label %.lr.ph38, label %._crit_edge.loopexit
}